target datalayout = "e-m:e-p270:32:32-p271:32:32-p272:64:64-i64:64-i128:128-f80:128-n8:16:32:64-S128"
target triple = "x86_64-pc-linux-gnu"

%struct._object = type { %union.anon, ptr }
%union.anon = type { i64 }
%struct.PySocketSockObject = type { %struct._object, i32, i32, i32, i32, ptr, i64, ptr }
%struct.sock_accept = type { ptr, ptr, i32 }
%union.__SOCKADDR_ARG = type { ptr }

@accept4_works = internal global i32 -1, align 4

; Function Attrs: inlinehint nounwind uwtable
define internal void @_Py_atomic_store_int_relaxed(ptr noundef %0, i32 noundef %1) #3 {
  %3 = alloca ptr, align 8
  %4 = alloca i32, align 4
  %5 = alloca i32, align 4
  store ptr %0, ptr %3, align 8, !tbaa !50
  store i32 %1, ptr %4, align 4, !tbaa !15
  %6 = load ptr, ptr %3, align 8, !tbaa !50
  %7 = load i32, ptr %4, align 4, !tbaa !15
  store i32 %7, ptr %5, align 4, !tbaa !15
  %8 = load i32, ptr %5, align 4
  store atomic i32 %8, ptr %6 monotonic, align 4
  ret void
}

; Function Attrs: inlinehint nounwind uwtable
define internal i32 @get_sock_fd(ptr noundef %0) #3 {
  %2 = alloca ptr, align 8
  store ptr %0, ptr %2, align 8, !tbaa !8
  %3 = load ptr, ptr %2, align 8, !tbaa !8
  %4 = getelementptr inbounds nuw %struct.PySocketSockObject, ptr %3, i32 0, i32 1
  %5 = load i32, ptr %4, align 8, !tbaa !113
  ret i32 %5
}

; Function Attrs: inlinehint nounwind uwtable
define internal i32 @_Py_atomic_load_int_relaxed(ptr noundef %0) #3 {
  %2 = alloca ptr, align 8
  %3 = alloca i32, align 4
  store ptr %0, ptr %2, align 8, !tbaa !50
  %4 = load ptr, ptr %2, align 8, !tbaa !50
  %5 = load atomic i32, ptr %4 monotonic, align 4
  store i32 %5, ptr %3, align 4
  %6 = load i32, ptr %3, align 4, !tbaa !15
  ret i32 %6
}

; Function Attrs: nounwind uwtable
define internal i32 @sock_accept_impl(ptr noundef %0, ptr noundef %1) #0 {
  %3 = alloca ptr, align 8
  %4 = alloca ptr, align 8
  %5 = alloca ptr, align 8
  %6 = alloca ptr, align 8
  %7 = alloca ptr, align 8
  %8 = alloca %union.__SOCKADDR_ARG, align 8
  %9 = alloca %union.__SOCKADDR_ARG, align 8
  store ptr %0, ptr %3, align 8, !tbaa !8
  store ptr %1, ptr %4, align 8, !tbaa !8
  call void @llvm.lifetime.start.p0(i64 8, ptr %5) #10
  %10 = load ptr, ptr %4, align 8, !tbaa !8
  store ptr %10, ptr %5, align 8, !tbaa !235
  call void @llvm.lifetime.start.p0(i64 8, ptr %6) #10
  %11 = load ptr, ptr %5, align 8, !tbaa !235
  %12 = getelementptr inbounds nuw %struct.sock_accept, ptr %11, i32 0, i32 1
  %13 = load ptr, ptr %12, align 8, !tbaa !182
  store ptr %13, ptr %6, align 8, !tbaa !28
  call void @llvm.lifetime.start.p0(i64 8, ptr %7) #10
  %14 = load ptr, ptr %5, align 8, !tbaa !235
  %15 = getelementptr inbounds nuw %struct.sock_accept, ptr %14, i32 0, i32 0
  %16 = load ptr, ptr %15, align 8, !tbaa !179
  store ptr %16, ptr %7, align 8, !tbaa !50
  %17 = load ptr, ptr %3, align 8, !tbaa !8
  %18 = getelementptr inbounds nuw %struct.PySocketSockObject, ptr %17, i32 0, i32 2
  %19 = load i32, ptr %18, align 4, !tbaa !106
  %20 = icmp eq i32 %19, 38
  br i1 %20, label %21, label %25

21:                                               ; preds = %2
  store ptr null, ptr %6, align 8, !tbaa !28
  store ptr null, ptr %7, align 8, !tbaa !50
  %22 = load ptr, ptr %5, align 8, !tbaa !235
  %23 = getelementptr inbounds nuw %struct.sock_accept, ptr %22, i32 0, i32 0
  %24 = load ptr, ptr %23, align 8, !tbaa !179
  store i32 0, ptr %24, align 4, !tbaa !15
  br label %25

25:                                               ; preds = %21, %2
  %26 = call i32 @_Py_atomic_load_int_relaxed(ptr noundef @accept4_works)
  %27 = icmp ne i32 %26, 0
  br i1 %27, label %28, label %51

28:                                               ; preds = %25
  %29 = load ptr, ptr %3, align 8, !tbaa !8
  %30 = call i32 @get_sock_fd(ptr noundef %29)
  %31 = load ptr, ptr %6, align 8, !tbaa !28
  store ptr %31, ptr %8, align 8, !tbaa !35
  %32 = load ptr, ptr %7, align 8, !tbaa !50
  %33 = getelementptr inbounds nuw %union.__SOCKADDR_ARG, ptr %8, i32 0, i32 0
  %34 = load ptr, ptr %33, align 8
  %35 = call i32 @accept4(i32 noundef %30, ptr %34, ptr noundef %32, i32 noundef 524288)
  %36 = load ptr, ptr %5, align 8, !tbaa !235
  %37 = getelementptr inbounds nuw %struct.sock_accept, ptr %36, i32 0, i32 2
  store i32 %35, ptr %37, align 8, !tbaa !183
  %38 = load ptr, ptr %5, align 8, !tbaa !235
  %39 = getelementptr inbounds nuw %struct.sock_accept, ptr %38, i32 0, i32 2
  %40 = load i32, ptr %39, align 8, !tbaa !183
  %41 = icmp eq i32 %40, -1
  br i1 %41, label %42, label %50

42:                                               ; preds = %28
  %43 = call i32 @_Py_atomic_load_int_relaxed(ptr noundef @accept4_works)
  %44 = icmp eq i32 %43, -1
  br i1 %44, label %45, label %50

45:                                               ; preds = %42
  %46 = call ptr @__errno_location() #11
  %47 = load i32, ptr %46, align 4, !tbaa !15
  %48 = icmp ne i32 %47, 38
  %49 = zext i1 %48 to i32
  call void @_Py_atomic_store_int_relaxed(ptr noundef @accept4_works, i32 noundef %49)
  br label %50

50:                                               ; preds = %45, %42, %28
  br label %51

51:                                               ; preds = %50, %25
  %52 = call i32 @_Py_atomic_load_int_relaxed(ptr noundef @accept4_works)
  %53 = icmp eq i32 %52, 0
  br i1 %53, label %54, label %64

54:                                               ; preds = %51
  %55 = load ptr, ptr %3, align 8, !tbaa !8
  %56 = call i32 @get_sock_fd(ptr noundef %55)
  %57 = load ptr, ptr %6, align 8, !tbaa !28
  store ptr %57, ptr %9, align 8, !tbaa !35
  %58 = load ptr, ptr %7, align 8, !tbaa !50
  %59 = getelementptr inbounds nuw %union.__SOCKADDR_ARG, ptr %9, i32 0, i32 0
  %60 = load ptr, ptr %59, align 8
  %61 = call i32 @accept(i32 noundef %56, ptr %60, ptr noundef %58)
  %62 = load ptr, ptr %5, align 8, !tbaa !235
  %63 = getelementptr inbounds nuw %struct.sock_accept, ptr %62, i32 0, i32 2
  store i32 %61, ptr %63, align 8, !tbaa !183
  br label %64

64:                                               ; preds = %54, %51
  %65 = load ptr, ptr %5, align 8, !tbaa !235
  %66 = getelementptr inbounds nuw %struct.sock_accept, ptr %65, i32 0, i32 2
  %67 = load i32, ptr %66, align 8, !tbaa !183
  %68 = icmp sge i32 %67, 0
  %69 = zext i1 %68 to i32
  call void @llvm.lifetime.end.p0(i64 8, ptr %7) #10
  call void @llvm.lifetime.end.p0(i64 8, ptr %6) #10
  call void @llvm.lifetime.end.p0(i64 8, ptr %5) #10
  ret i32 %69
}