; Function Attrs: nounwind uwtable
define internal range(i32 0, 2) i32 @sock_accept_impl(ptr noundef readonly captures(none) %0, ptr noundef captures(none) %1) #0 {
  %3 = getelementptr inbounds nuw i8, ptr %1, i64 8
  %4 = load ptr, ptr %3, align 8, !tbaa !137
  %5 = load ptr, ptr %1, align 8, !tbaa !133
  %6 = getelementptr inbounds nuw i8, ptr %0, i64 20
  %7 = load i32, ptr %6, align 4, !tbaa !86
  %8 = icmp eq i32 %7, 38
  br i1 %8, label %9, label %10

9:                                                ; preds = %2
  store i32 0, ptr %5, align 4, !tbaa !35
  br label %10

10:                                               ; preds = %9, %2
  %.016 = phi ptr [ null, %9 ], [ %5, %2 ]
  %.0 = phi ptr [ null, %9 ], [ %4, %2 ]
  %11 = load atomic i32, ptr @accept4_works monotonic, align 4
  %.not = icmp eq i32 %11, 0
  br i1 %.not, label %25, label %12

12:                                               ; preds = %10
  %13 = getelementptr i8, ptr %0, i64 16
  %.val17 = load i32, ptr %13, align 8, !tbaa !83
  %14 = tail call i32 @accept4(i32 noundef %.val17, ptr %.0, ptr noundef %.016, i32 noundef 524288) #13
  %15 = getelementptr inbounds nuw i8, ptr %1, i64 16
  store i32 %14, ptr %15, align 8, !tbaa !138
  %16 = icmp eq i32 %14, -1
  br i1 %16, label %17, label %25

17:                                               ; preds = %12
  %18 = load atomic i32, ptr @accept4_works monotonic, align 4
  %19 = icmp eq i32 %18, -1
  br i1 %19, label %20, label %25

20:                                               ; preds = %17
  %21 = tail call ptr @__errno_location() #14
  %22 = load i32, ptr %21, align 4, !tbaa !35
  %23 = icmp ne i32 %22, 38
  %24 = zext i1 %23 to i32
  store atomic i32 %24, ptr @accept4_works monotonic, align 4
  br label %25

25:                                               ; preds = %12, %17, %20, %10
  %26 = load atomic i32, ptr @accept4_works monotonic, align 4
  %27 = icmp eq i32 %26, 0
  br i1 %27, label %28, label %._crit_edge

._crit_edge:                                      ; preds = %25
  %.phi.trans.insert = getelementptr inbounds nuw i8, ptr %1, i64 16
  %.pre = load i32, ptr %.phi.trans.insert, align 8, !tbaa !138
  br label %32

28:                                               ; preds = %25
  %29 = getelementptr i8, ptr %0, i64 16
  %.val = load i32, ptr %29, align 8, !tbaa !83
  %30 = tail call i32 @accept(i32 noundef %.val, ptr %.0, ptr noundef %.016) #13
  %31 = getelementptr inbounds nuw i8, ptr %1, i64 16
  store i32 %30, ptr %31, align 8, !tbaa !138
  br label %32

32:                                               ; preds = %._crit_edge, %28
  %33 = phi i32 [ %.pre, %._crit_edge ], [ %30, %28 ]
  %34 = icmp sgt i32 %33, -1
  %35 = zext i1 %34 to i32
  ret i32 %35
}